target datalayout = "e-m:e-p270:32:32-p271:32:32-p272:64:64-i64:64-i128:128-f80:128-n8:16:32:64-S128"
target triple = "x86_64-pc-linux-gnu"

; Function Attrs: nounwind null_pointer_is_valid sspstrong uwtable
define internal i32 @rlc_channel_equal(ptr noundef %0, ptr noundef %1) #4 {
  %3 = alloca ptr, align 8
  %4 = alloca ptr, align 8
  %5 = alloca ptr, align 8
  %6 = alloca ptr, align 8
  store ptr %0, ptr %3, align 8
  store ptr %1, ptr %4, align 8
  call void @llvm.lifetime.start.p0(i64 8, ptr %5) #16
  %7 = load ptr, ptr %3, align 8
  store ptr %7, ptr %5, align 8
  call void @llvm.lifetime.start.p0(i64 8, ptr %6) #16
  %8 = load ptr, ptr %4, align 8
  store ptr %8, ptr %6, align 8
  %9 = load ptr, ptr %5, align 8
  %10 = load i32, ptr %9, align 4
  %11 = and i32 %10, 65535
  %12 = load ptr, ptr %6, align 8
  %13 = load i32, ptr %12, align 4
  %14 = and i32 %13, 65535
  %15 = icmp eq i32 %11, %14
  br i1 %15, label %16, label %46

16:                                               ; preds = %2
  %17 = load ptr, ptr %5, align 8
  %18 = load i32, ptr %17, align 4
  %19 = lshr i32 %18, 16
  %20 = and i32 %19, 7
  %21 = load ptr, ptr %6, align 8
  %22 = load i32, ptr %21, align 4
  %23 = lshr i32 %22, 16
  %24 = and i32 %23, 7
  %25 = icmp eq i32 %20, %24
  br i1 %25, label %26, label %46

26:                                               ; preds = %16
  %27 = load ptr, ptr %5, align 8
  %28 = load i32, ptr %27, align 4
  %29 = lshr i32 %28, 19
  %30 = and i32 %29, 31
  %31 = load ptr, ptr %6, align 8
  %32 = load i32, ptr %31, align 4
  %33 = lshr i32 %32, 19
  %34 = and i32 %33, 31
  %35 = icmp eq i32 %30, %34
  br i1 %35, label %36, label %46

36:                                               ; preds = %26
  %37 = load ptr, ptr %5, align 8
  %38 = load i32, ptr %37, align 4
  %39 = lshr i32 %38, 24
  %40 = and i32 %39, 1
  %41 = load ptr, ptr %6, align 8
  %42 = load i32, ptr %41, align 4
  %43 = lshr i32 %42, 24
  %44 = and i32 %43, 1
  %45 = icmp eq i32 %40, %44
  br label %46

46:                                               ; preds = %36, %26, %16, %2
  %47 = phi i1 [ false, %26 ], [ false, %16 ], [ false, %2 ], [ %45, %36 ]
  %48 = zext i1 %47 to i32
  call void @llvm.lifetime.end.p0(i64 8, ptr %6) #16
  call void @llvm.lifetime.end.p0(i64 8, ptr %5) #16
  ret i32 %48
}