; Function Attrs: mustprogress nofree norecurse nosync nounwind null_pointer_is_valid sspstrong willreturn memory(argmem: read) uwtable
define internal range(i32 0, 2) i32 @rlc_channel_equal(ptr noundef readonly captures(none) %0, ptr noundef readonly captures(none) %1) #4 {
  %3 = load i32, ptr %0, align 4
  %4 = load i32, ptr %1, align 4
  %5 = xor i32 %4, %3
  %6 = and i32 %5, 16777215
  %or.cond12 = icmp eq i32 %6, 0
  %7 = lshr i32 %5, 24
  %.lobit = and i32 %7, 1
  %8 = xor i32 %.lobit, 1
  %9 = select i1 %or.cond12, i32 %8, i32 0
  ret i32 %9
}